Certificate:
    Data:
        Version: 1 (0x0)
        Serial Number: 1 (0x1)
        Signature Algorithm: md5WithRSAEncryption
        Issuer: O=The Sample Company, OU=client dev/emailAddress=riak@basho.com, L=Metropolis, ST=New York, C=US, CN=Basho Root CA
        Validity
            Not Before: Feb 28 22:46:14 2014 GMT
            Not After : Feb 26 22:46:14 2024 GMT
        Subject: C=US, ST=New York, O=The Sample Company, OU=rjc test, CN=localhost
        Subject Public Key Info:
            Public Key Algorithm: rsaEncryption
            RSA Public Key: (1024 bit)
                Modulus (1024 bit):
                    00:d7:b8:f0:ac:c6:43:fc:df:9c:8a:64:e9:72:bf:
                    22:b5:ca:bf:88:e2:4e:a8:3f:8b:d4:41:da:c7:21:
                    f3:fb:69:db:b4:40:4b:79:49:e8:59:fc:f4:f4:a6:
                    c4:76:db:70:d7:ca:77:64:f7:50:71:43:f5:73:b7:
                    8e:ec:28:bd:3d:bc:95:f9:87:c0:c0:3a:5b:46:d7:
                    38:3b:fc:06:0d:b1:20:a8:24:41:6d:d4:78:c7:50:
                    e6:46:4d:78:45:00:ab:6d:e1:32:d0:78:a2:36:68:
                    32:ec:7a:93:2e:4a:a0:a2:79:55:35:2d:2d:35:09:
                    af:29:ac:2b:23:88:b3:00:ab
                Exponent: 65537 (0x10001)
    Signature Algorithm: md5WithRSAEncryption
        61:da:a4:cc:3d:24:1f:96:11:ff:09:5a:d0:a8:cb:71:a1:c4:
        0b:3f:9b:20:63:81:98:c6:37:da:2d:57:e8:7c:96:9d:21:21:
        01:e5:d9:34:dd:e8:bb:68:91:9a:6a:33:37:76:14:f6:9b:2b:
        56:d4:e3:8a:cf:fe:47:95:35:a9:57:96:eb:b8:7c:75:c4:be:
        3b:6a:9f:5c:3b:e4:61:5c:5f:67:cc:aa:dd:63:01:42:49:8b:
        5d:bb:e6:24:52:69:c0:71:6c:5c:1a:90:22:a4:db:7d:7b:db:
        4e:8d:e4:7a:e5:d5:af:2a:fa:1f:a5:22:d9:c8:d7:ea:d5:e1:
        96:7a
-----BEGIN CERTIFICATE-----
MIICcjCCAdsCAQEwDQYJKoZIhvcNAQEEBQAwgZ4xGzAZBgNVBAoTElRoZSBTYW1w
bGUgQ29tcGFueTETMBEGA1UECxMKY2xpZW50IGRldjEdMBsGCSqGSIb3DQEJARYO
cmlha0BiYXNoby5jb20xEzARBgNVBAcTCk1ldHJvcG9saXMxETAPBgNVBAgTCE5l
dyBZb3JrMQswCQYDVQQGEwJVUzEWMBQGA1UEAxMNQmFzaG8gUm9vdCBDQTAeFw0x
NDAyMjgyMjQ2MTRaFw0yNDAyMjYyMjQ2MTRaMGQxCzAJBgNVBAYTAlVTMREwDwYD
VQQIEwhOZXcgWW9yazEbMBkGA1UEChMSVGhlIFNhbXBsZSBDb21wYW55MREwDwYD
VQQLEwhyamMgdGVzdDESMBAGA1UEAxMJbG9jYWxob3N0MIGfMA0GCSqGSIb3DQEB
AQUAA4GNADCBiQKBgQDXuPCsxkP835yKZOlyvyK1yr+I4k6oP4vUQdrHIfP7adu0
QEt5SehZ/PT0psR223DXyndk91BxQ/Vzt47sKL09vJX5h8DAOltG1zg7/AYNsSCo
JEFt1HjHUOZGTXhFAKtt4TLQeKI2aDLsepMuSqCieVU1LS01Ca8prCsjiLMAqwID
AQABMA0GCSqGSIb3DQEBBAUAA4GBAGHapMw9JB+WEf8JWtCoy3GhxAs/myBjgZjG
N9otV+h8lp0hIQHl2TTd6LtokZpqMzd2FPabK1bU44rP/keVNalXluu4fHXEvjtq
n1w75GFcX2fMqt1jAUJJi1275iRSacBxbFwakCKk2317206N5Hrl1a8q+h+lItnI
1+rV4ZZ6
-----END CERTIFICATE-----
