Certificate:
    Data:
        Version: 3 (0x2)
        Serial Number: 11568451 (0xb08543)
    Signature Algorithm: sha1WithRSAEncryption
        Issuer: C=US, ST=Washington, L=Seattle, O=Basho, OU=Riak Python Client, CN=CA/emailAddress=clients@basho.com
        Validity
            Not Before: Sep 24 22:55:25 2014 GMT
            Not After : Sep 21 22:55:25 2024 GMT
        Subject: C=US, ST=Washington, O=Basho, OU=Riak Python Client, CN=certuser/emailAddress=clients@basho.com
        Subject Public Key Info:
            Public Key Algorithm: rsaEncryption
                Public-Key: (2048 bit)
                Modulus:
                    00:c7:e0:44:3a:eb:60:8a:86:70:66:0d:90:f6:29:
                    a9:85:17:21:3c:d0:7b:62:24:7d:a5:b6:d8:95:b1:
                    ef:8e:03:24:51:89:5a:34:8a:7a:e4:23:48:34:ce:
                    e9:f7:8c:d5:41:f7:fe:e5:7e:15:71:3f:6e:d3:07:
                    10:cd:60:92:39:24:d4:89:b4:74:34:4b:0d:28:47:
                    c1:ff:72:d0:e6:e4:a8:c5:95:eb:60:b8:f1:af:d0:
                    e4:3a:8c:5f:5d:d7:e4:20:85:11:cc:b0:fc:05:95:
                    df:d1:0b:1f:b2:4a:9d:21:40:28:2d:c6:a7:37:ee:
                    3c:f1:f9:c1:ee:7b:bd:ec:74:e4:9a:4f:d5:db:fe:
                    91:e7:9f:95:1f:19:a1:c7:d3:3e:18:4b:d2:58:5b:
                    26:80:f2:7e:1d:94:4e:c6:b3:4a:ae:b2:ea:50:b0:
                    eb:3d:c5:76:f1:18:ba:73:cf:87:ec:f4:bd:dc:4a:
                    59:1d:c7:bc:79:88:c6:e8:2c:89:09:8c:1b:4b:93:
                    8f:23:f5:2d:40:f8:70:66:0c:3d:c5:e7:99:cb:58:
                    f6:46:b4:60:bf:b7:02:f4:1b:04:30:ca:aa:30:6a:
                    a8:b0:ad:ec:ad:40:d2:fb:78:b2:51:2a:d3:40:4a:
                    60:bb:24:40:6f:21:49:58:fa:56:b7:e9:5e:9f:b9:
                    51:bd
                Exponent: 65537 (0x10001)
        X509v3 extensions:
            X509v3 Basic Constraints: 
                CA:FALSE
            Netscape Cert Type: 
                SSL Client, SSL Server
            X509v3 Key Usage: 
                Digital Signature, Non Repudiation, Key Encipherment
            Netscape Comment: 
                Riak Python Client Testing Certificate
            X509v3 Subject Key Identifier: 
                7C:AD:B9:A3:4C:9B:59:3E:2F:F3:4B:07:64:92:2D:1C:28:99:AC:A2
            X509v3 Authority Key Identifier: 
                DirName:/C=US/ST=Washington/L=Seattle/O=Basho/OU=Riak Python Client/CN=CA/emailAddress=clients@basho.com
                serial:DB:E9:54:15:F5:5D:C0:FF

            X509v3 Extended Key Usage: 
                TLS Web Server Authentication, TLS Web Client Authentication
    Signature Algorithm: sha1WithRSAEncryption
         ad:f7:51:6a:c5:1b:eb:93:81:a3:b2:de:3e:a6:15:9d:4f:e7:
         f9:37:19:f7:0d:fc:e5:7e:02:11:92:be:da:e4:c3:78:ed:90:
         a9:a7:57:f0:08:72:a5:90:cc:5e:27:9b:8d:ad:9f:38:95:26:
         d3:79:c8:03:0b:7e:40:dd:a8:0b:13:98:2f:6c:52:01:a9:b9:
         eb:fe:0c:19:2e:36:82:b0:fc:a5:46:88:64:fa:8d:d3:73:b4:
         be:9c:f1:74:a8:a0:28:2a:81:9d:cd:62:8a:e0:12:5f:c3:c4:
         0b:d0:15:f6:02:0e:41:da:50:f2:c8:70:91:24:71:e9:89:e7:
         ac:47:73:05:97:7c:3f:4e:24:22:05:06:29:1e:08:b3:49:97:
         3b:11:4f:56:ba:83:c1:0f:8d:20:ed:80:9a:0d:6d:53:ee:63:
         bf:3a:24:e3:62:9c:eb:6f:b8:af:01:0d:89:63:47:b3:fc:f7:
         30:f6:3f:96:ed:2e:52:bc:75:c9:27:82:70:b6:e6:d2:f4:0c:
         aa:fc:39:c7:54:97:44:98:3f:5f:e5:27:2d:33:d9:74:98:e0:
         96:aa:71:b3:5a:27:78:3b:ed:70:93:3a:bd:df:f9:35:78:68:
         70:36:d6:16:61:83:66:8a:f9:96:c3:e0:ca:a3:20:3e:50:1b:
         9a:fd:7c:4c
-----BEGIN CERTIFICATE-----
MIIE7DCCA9SgAwIBAgIEALCFQzANBgkqhkiG9w0BAQUFADCBkDELMAkGA1UEBhMC
VVMxEzARBgNVBAgMCldhc2hpbmd0b24xEDAOBgNVBAcMB1NlYXR0bGUxDjAMBgNV
BAoMBUJhc2hvMRswGQYDVQQLDBJSaWFrIFB5dGhvbiBDbGllbnQxCzAJBgNVBAMM
AkNBMSAwHgYJKoZIhvcNAQkBFhFjbGllbnRzQGJhc2hvLmNvbTAeFw0xNDA5MjQy
MjU1MjVaFw0yNDA5MjEyMjU1MjVaMIGEMQswCQYDVQQGEwJVUzETMBEGA1UECAwK
V2FzaGluZ3RvbjEOMAwGA1UECgwFQmFzaG8xGzAZBgNVBAsMElJpYWsgUHl0aG9u
IENsaWVudDERMA8GA1UEAwwIY2VydHVzZXIxIDAeBgkqhkiG9w0BCQEWEWNsaWVu
dHNAYmFzaG8uY29tMIIBIjANBgkqhkiG9w0BAQEFAAOCAQ8AMIIBCgKCAQEAx+BE
OutgioZwZg2Q9imphRchPNB7YiR9pbbYlbHvjgMkUYlaNIp65CNINM7p94zVQff+
5X4VcT9u0wcQzWCSOSTUibR0NEsNKEfB/3LQ5uSoxZXrYLjxr9DkOoxfXdfkIIUR
zLD8BZXf0QsfskqdIUAoLcanN+488fnB7nu97HTkmk/V2/6R55+VHxmhx9M+GEvS
WFsmgPJ+HZROxrNKrrLqULDrPcV28Ri6c8+H7PS93EpZHce8eYjG6CyJCYwbS5OP
I/UtQPhwZgw9xeeZy1j2RrRgv7cC9BsEMMqqMGqosK3srUDS+3iyUSrTQEpguyRA
byFJWPpWt+len7lRvQIDAQABo4IBVjCCAVIwCQYDVR0TBAIwADARBglghkgBhvhC
AQEEBAMCBsAwCwYDVR0PBAQDAgXgMDUGCWCGSAGG+EIBDQQoFiZSaWFrIFB5dGhv
biBDbGllbnQgVGVzdGluZyBDZXJ0aWZpY2F0ZTAdBgNVHQ4EFgQUfK25o0ybWT4v
80sHZJItHCiZrKIwga8GA1UdIwSBpzCBpKGBlqSBkzCBkDELMAkGA1UEBhMCVVMx
EzARBgNVBAgMCldhc2hpbmd0b24xEDAOBgNVBAcMB1NlYXR0bGUxDjAMBgNVBAoM
BUJhc2hvMRswGQYDVQQLDBJSaWFrIFB5dGhvbiBDbGllbnQxCzAJBgNVBAMMAkNB
MSAwHgYJKoZIhvcNAQkBFhFjbGllbnRzQGJhc2hvLmNvbYIJANvpVBX1XcD/MB0G
A1UdJQQWMBQGCCsGAQUFBwMBBggrBgEFBQcDAjANBgkqhkiG9w0BAQUFAAOCAQEA
rfdRasUb65OBo7LePqYVnU/n+TcZ9w385X4CEZK+2uTDeO2QqadX8AhypZDMXieb
ja2fOJUm03nIAwt+QN2oCxOYL2xSAam56/4MGS42grD8pUaIZPqN03O0vpzxdKig
KCqBnc1iiuASX8PEC9AV9gIOQdpQ8shwkSRx6YnnrEdzBZd8P04kIgUGKR4Is0mX
OxFPVrqDwQ+NIO2Amg1tU+5jvzok42Kc62+4rwENiWNHs/z3MPY/lu0uUrx1ySeC
cLbm0vQMqvw5x1SXRJg/X+UnLTPZdJjglqpxs1oneDvtcJM6vd/5NXhocDbWFmGD
Zor5lsPgyqMgPlAbmv18TA==
-----END CERTIFICATE-----
