Certificate:
    Data:
        Version: 3 (0x2)
        Serial Number: 11568450 (0xb08542)
    Signature Algorithm: sha1WithRSAEncryption
        Issuer: C=US, ST=Washington, L=Seattle, O=Basho, OU=Riak Python Client, CN=CA/emailAddress=clients@basho.com
        Validity
            Not Before: Sep 24 22:55:25 2014 GMT
            Not After : Sep 21 22:55:25 2024 GMT
        Subject: C=US, ST=Washington, O=Basho, OU=Riak Python Client, CN=riak@127.0.0.1/emailAddress=clients@basho.com
        Subject Public Key Info:
            Public Key Algorithm: rsaEncryption
                Public-Key: (2048 bit)
                Modulus:
                    00:eb:38:1c:40:d6:8d:e9:65:4d:d1:8f:1a:c3:1f:
                    03:7f:a0:1c:cc:c3:e2:53:fb:b0:27:60:2d:2a:0e:
                    ad:5c:67:7c:c3:62:f1:79:d5:04:c0:83:b6:5a:41:
                    f2:a7:8d:f8:4a:50:17:35:c7:6f:75:af:72:e7:44:
                    65:99:e3:cb:c7:88:86:66:64:20:ce:6f:f8:14:5d:
                    96:dc:19:7a:5c:4e:24:f7:50:df:d7:71:f5:2e:ce:
                    73:d4:a2:5e:98:52:0e:66:e3:88:22:d9:8d:88:8e:
                    ac:96:2d:b1:0c:05:e8:59:30:4c:0e:fa:e7:8d:29:
                    7f:b4:93:93:92:9c:8b:07:b9:b1:da:02:c4:d2:41:
                    57:df:d1:ab:4c:15:e2:9f:da:65:5d:48:88:fa:51:
                    0b:79:b9:3c:99:0a:16:de:66:58:13:cb:98:48:bd:
                    2b:bd:d2:56:35:bf:16:c5:42:5d:39:1f:3a:26:8e:
                    0c:7f:a4:a0:cb:4b:90:d9:49:a0:1d:52:c9:64:d6:
                    10:01:25:ae:15:a5:aa:92:dd:cf:91:92:16:0d:9d:
                    95:ec:1f:e6:3c:8c:00:7f:30:c4:e1:f5:87:c9:5e:
                    08:a2:2b:8c:63:eb:d0:46:9d:83:66:42:d8:60:ed:
                    77:c2:6e:93:ad:89:bc:3d:5b:a5:c9:5f:dd:8f:69:
                    c5:a9
                Exponent: 65537 (0x10001)
        X509v3 extensions:
            X509v3 Basic Constraints: 
                CA:FALSE
            Netscape Cert Type: 
                SSL Client, SSL Server
            X509v3 Key Usage: 
                Digital Signature, Non Repudiation, Key Encipherment
            Netscape Comment: 
                Riak Python Client Testing Certificate
            X509v3 Subject Key Identifier: 
                6C:09:ED:0E:F7:5B:0C:A0:8E:7C:31:2F:78:F6:78:45:8D:69:EF:36
            X509v3 Authority Key Identifier: 
                DirName:/C=US/ST=Washington/L=Seattle/O=Basho/OU=Riak Python Client/CN=CA/emailAddress=clients@basho.com
                serial:DB:E9:54:15:F5:5D:C0:FF

            X509v3 Extended Key Usage: 
                TLS Web Server Authentication, TLS Web Client Authentication
    Signature Algorithm: sha1WithRSAEncryption
         85:7a:8e:95:68:8e:e5:4f:be:89:b4:9b:ab:bc:43:b0:4f:7d:
         ad:14:e4:a4:3b:c2:a8:b3:42:78:f7:91:78:34:96:1a:93:57:
         d5:4f:23:7d:b7:62:cf:0c:cf:59:09:4b:99:93:41:b6:ed:a7:
         d9:51:6f:4f:83:c3:93:2f:9d:59:96:c0:63:47:1d:9b:e9:5d:
         2f:aa:4e:7c:bf:9a:5e:12:66:4a:83:df:e2:e3:14:49:ad:96:
         61:9c:55:fa:7e:ed:3a:7d:a2:bf:fd:8d:e6:5f:fb:d8:c0:a2:
         c3:32:a7:c7:e6:65:77:d7:94:cf:54:67:e0:b9:86:bc:28:1c:
         19:71:1a:e7:23:42:81:52:50:29:07:10:6f:d3:c0:42:92:ba:
         36:9e:f5:8e:0f:ab:3d:a4:e7:79:16:e5:ec:fd:fd:dc:fd:1f:
         35:87:67:d8:dd:15:68:74:01:b9:cb:57:a0:9b:7d:bd:b6:12:
         8d:7f:b8:5e:c5:f3:fb:4d:74:72:78:59:1d:f2:b6:80:ae:fe:
         ee:4d:c6:a6:89:89:ca:ba:48:67:4d:35:e5:9f:bc:cc:ea:ef:
         26:3e:02:37:5f:b3:c6:ba:2e:ac:0a:fd:60:f5:85:2e:fd:81:
         68:78:b9:47:81:c7:f8:0e:6f:0a:08:a6:b8:41:97:ac:db:3b:
         75:aa:24:c8
-----BEGIN CERTIFICATE-----
MIIE8jCCA9qgAwIBAgIEALCFQjANBgkqhkiG9w0BAQUFADCBkDELMAkGA1UEBhMC
VVMxEzARBgNVBAgMCldhc2hpbmd0b24xEDAOBgNVBAcMB1NlYXR0bGUxDjAMBgNV
BAoMBUJhc2hvMRswGQYDVQQLDBJSaWFrIFB5dGhvbiBDbGllbnQxCzAJBgNVBAMM
AkNBMSAwHgYJKoZIhvcNAQkBFhFjbGllbnRzQGJhc2hvLmNvbTAeFw0xNDA5MjQy
MjU1MjVaFw0yNDA5MjEyMjU1MjVaMIGKMQswCQYDVQQGEwJVUzETMBEGA1UECAwK
V2FzaGluZ3RvbjEOMAwGA1UECgwFQmFzaG8xGzAZBgNVBAsMElJpYWsgUHl0aG9u
IENsaWVudDEXMBUGA1UEAwwOcmlha0AxMjcuMC4wLjExIDAeBgkqhkiG9w0BCQEW
EWNsaWVudHNAYmFzaG8uY29tMIIBIjANBgkqhkiG9w0BAQEFAAOCAQ8AMIIBCgKC
AQEA6zgcQNaN6WVN0Y8awx8Df6AczMPiU/uwJ2AtKg6tXGd8w2LxedUEwIO2WkHy
p434SlAXNcdvda9y50RlmePLx4iGZmQgzm/4FF2W3Bl6XE4k91Df13H1Ls5z1KJe
mFIOZuOIItmNiI6sli2xDAXoWTBMDvrnjSl/tJOTkpyLB7mx2gLE0kFX39GrTBXi
n9plXUiI+lELebk8mQoW3mZYE8uYSL0rvdJWNb8WxUJdOR86Jo4Mf6Sgy0uQ2Umg
HVLJZNYQASWuFaWqkt3PkZIWDZ2V7B/mPIwAfzDE4fWHyV4IoiuMY+vQRp2DZkLY
YO13wm6TrYm8PVulyV/dj2nFqQIDAQABo4IBVjCCAVIwCQYDVR0TBAIwADARBglg
hkgBhvhCAQEEBAMCBsAwCwYDVR0PBAQDAgXgMDUGCWCGSAGG+EIBDQQoFiZSaWFr
IFB5dGhvbiBDbGllbnQgVGVzdGluZyBDZXJ0aWZpY2F0ZTAdBgNVHQ4EFgQUbAnt
DvdbDKCOfDEvePZ4RY1p7zYwga8GA1UdIwSBpzCBpKGBlqSBkzCBkDELMAkGA1UE
BhMCVVMxEzARBgNVBAgMCldhc2hpbmd0b24xEDAOBgNVBAcMB1NlYXR0bGUxDjAM
BgNVBAoMBUJhc2hvMRswGQYDVQQLDBJSaWFrIFB5dGhvbiBDbGllbnQxCzAJBgNV
BAMMAkNBMSAwHgYJKoZIhvcNAQkBFhFjbGllbnRzQGJhc2hvLmNvbYIJANvpVBX1
XcD/MB0GA1UdJQQWMBQGCCsGAQUFBwMBBggrBgEFBQcDAjANBgkqhkiG9w0BAQUF
AAOCAQEAhXqOlWiO5U++ibSbq7xDsE99rRTkpDvCqLNCePeReDSWGpNX1U8jfbdi
zwzPWQlLmZNBtu2n2VFvT4PDky+dWZbAY0cdm+ldL6pOfL+aXhJmSoPf4uMUSa2W
YZxV+n7tOn2iv/2N5l/72MCiwzKnx+Zld9eUz1Rn4LmGvCgcGXEa5yNCgVJQKQcQ
b9PAQpK6Np71jg+rPaTneRbl7P393P0fNYdn2N0VaHQBuctXoJt9vbYSjX+4XsXz
+010cnhZHfK2gK7+7k3GpomJyrpIZ0015Z+8zOrvJj4CN1+zxrourAr9YPWFLv2B
aHi5R4HH+A5vCgimuEGXrNs7daokyA==
-----END CERTIFICATE-----
